#include <math.h>
#include <stdio.h>
#include <stdlib.h>
#include <string.h>



int main()
{
	int k,rd,n,i;
	double *x,plus,avex,output;
	scanf("%d",&k);
	for(rd=0;rd<k;rd++)
	{
		scanf("%d",&n);
		plus=0;
		output=0;
		x=(double *)malloc(n*sizeof(double));
		for(i=0;i<n;i++)
		{
			scanf("%lf",&x[i]);
			plus+=x[i];
		}
		avex=plus/n;
		for(i=0;i<n;i++)
		{
			output+=pow(x[i]-avex,2);
		}
		printf("%.5f\n",sqrt((output/n)));
		free(x);
	}
	return 0;
}