; ModuleID = '38/1007.c'
source_filename = "38/1007.c"
target datalayout = "e-m:e-p270:32:32-p271:32:32-p272:64:64-i64:64-f80:128-n8:16:32:64-S128"
target triple = "x86_64-pc-linux-gnu"

@.str = private unnamed_addr constant [3 x i8] c"%d\00", align 1
@.str.1 = private unnamed_addr constant [4 x i8] c"%lf\00", align 1
@.str.2 = private unnamed_addr constant [6 x i8] c"%.5f\0A\00", align 1

; Function Attrs: noinline nounwind uwtable
define dso_local i32 @main() #0 {
  %1 = alloca i32, align 4
  %2 = alloca i32, align 4
  %3 = alloca i32, align 4
  %4 = alloca i32, align 4
  %5 = alloca i32, align 4
  %6 = alloca double*, align 8
  %7 = alloca double, align 8
  %8 = alloca double, align 8
  %9 = alloca double, align 8
  store i32 0, i32* %1, align 4
  %10 = call i32 (i8*, ...) @__isoc99_scanf(i8* getelementptr inbounds ([3 x i8], [3 x i8]* @.str, i64 0, i64 0), i32* %2)
  store i32 0, i32* %3, align 4
  br label %11

11:                                               ; preds = %74, %0
  %12 = load i32, i32* %3, align 4
  %13 = load i32, i32* %2, align 4
  %14 = icmp slt i32 %12, %13
  br i1 %14, label %15, label %77

15:                                               ; preds = %11
  %16 = call i32 (i8*, ...) @__isoc99_scanf(i8* getelementptr inbounds ([3 x i8], [3 x i8]* @.str, i64 0, i64 0), i32* %4)
  store double 0.000000e+00, double* %7, align 8
  store double 0.000000e+00, double* %9, align 8
  %17 = load i32, i32* %4, align 4
  %18 = sext i32 %17 to i64
  %19 = mul i64 %18, 8
  %20 = call noalias i8* @malloc(i64 %19) #3
  %21 = bitcast i8* %20 to double*
  store double* %21, double** %6, align 8
  store i32 0, i32* %5, align 4
  br label %22

22:                                               ; preds = %39, %15
  %23 = load i32, i32* %5, align 4
  %24 = load i32, i32* %4, align 4
  %25 = icmp slt i32 %23, %24
  br i1 %25, label %26, label %42

26:                                               ; preds = %22
  %27 = load double*, double** %6, align 8
  %28 = load i32, i32* %5, align 4
  %29 = sext i32 %28 to i64
  %30 = getelementptr inbounds double, double* %27, i64 %29
  %31 = call i32 (i8*, ...) @__isoc99_scanf(i8* getelementptr inbounds ([4 x i8], [4 x i8]* @.str.1, i64 0, i64 0), double* %30)
  %32 = load double*, double** %6, align 8
  %33 = load i32, i32* %5, align 4
  %34 = sext i32 %33 to i64
  %35 = getelementptr inbounds double, double* %32, i64 %34
  %36 = load double, double* %35, align 8
  %37 = load double, double* %7, align 8
  %38 = fadd double %37, %36
  store double %38, double* %7, align 8
  br label %39

39:                                               ; preds = %26
  %40 = load i32, i32* %5, align 4
  %41 = add nsw i32 %40, 1
  store i32 %41, i32* %5, align 4
  br label %22

42:                                               ; preds = %22
  %43 = load double, double* %7, align 8
  %44 = load i32, i32* %4, align 4
  %45 = sitofp i32 %44 to double
  %46 = fdiv double %43, %45
  store double %46, double* %8, align 8
  store i32 0, i32* %5, align 4
  br label %47

47:                                               ; preds = %62, %42
  %48 = load i32, i32* %5, align 4
  %49 = load i32, i32* %4, align 4
  %50 = icmp slt i32 %48, %49
  br i1 %50, label %51, label %65

51:                                               ; preds = %47
  %52 = load double*, double** %6, align 8
  %53 = load i32, i32* %5, align 4
  %54 = sext i32 %53 to i64
  %55 = getelementptr inbounds double, double* %52, i64 %54
  %56 = load double, double* %55, align 8
  %57 = load double, double* %8, align 8
  %58 = fsub double %56, %57
  %59 = call double @pow(double %58, double 2.000000e+00) #3
  %60 = load double, double* %9, align 8
  %61 = fadd double %60, %59
  store double %61, double* %9, align 8
  br label %62

62:                                               ; preds = %51
  %63 = load i32, i32* %5, align 4
  %64 = add nsw i32 %63, 1
  store i32 %64, i32* %5, align 4
  br label %47

65:                                               ; preds = %47
  %66 = load double, double* %9, align 8
  %67 = load i32, i32* %4, align 4
  %68 = sitofp i32 %67 to double
  %69 = fdiv double %66, %68
  %70 = call double @sqrt(double %69) #3
  %71 = call i32 (i8*, ...) @printf(i8* getelementptr inbounds ([6 x i8], [6 x i8]* @.str.2, i64 0, i64 0), double %70)
  %72 = load double*, double** %6, align 8
  %73 = bitcast double* %72 to i8*
  call void @free(i8* %73) #3
  br label %74

74:                                               ; preds = %65
  %75 = load i32, i32* %3, align 4
  %76 = add nsw i32 %75, 1
  store i32 %76, i32* %3, align 4
  br label %11

77:                                               ; preds = %11
  ret i32 0
}

declare dso_local i32 @__isoc99_scanf(i8*, ...) #1

; Function Attrs: nounwind
declare dso_local noalias i8* @malloc(i64) #2

; Function Attrs: nounwind
declare dso_local double @pow(double, double) #2

declare dso_local i32 @printf(i8*, ...) #1

; Function Attrs: nounwind
declare dso_local double @sqrt(double) #2

; Function Attrs: nounwind
declare dso_local void @free(i8*) #2


!llvm.module.flags = !{!0}
!llvm.ident = !{!1}

!0 = !{i32 1, !"wchar_size", i32 4}
!1 = !{!"clang version 10.0.0-4ubuntu1 "}
